target datalayout = "e-m:e-p270:32:32-p271:32:32-p272:64:64-i64:64-i128:128-f80:128-n8:16:32:64-S128"
target triple = "x86_64-pc-linux-gnu"

%struct.rb_data_type_struct = type { ptr, %struct.anon, ptr, ptr, i64 }
%struct.anon = type { ptr, ptr, ptr, ptr, [1 x ptr] }
%struct.rb_io_buffer = type { ptr, i64, i32, i64 }

@rb_io_buffer_type = internal constant %struct.rb_data_type_struct { ptr @.str.108, %struct.anon { ptr @rb_io_buffer_type_mark, ptr @rb_io_buffer_type_free, ptr @rb_io_buffer_type_size, ptr null, [1 x ptr] zeroinitializer }, ptr null, ptr null, i64 35 }, align 8
@rb_eIOBufferInvalidatedError = hidden global i64 0, align 8
@RB_IO_BUFFER_DATA_TYPE_U8 = internal global i64 0, align 8
@.str.119 = private unnamed_addr constant [29 x i8] c"Buffer has been invalidated!\00", align 1

; Function Attrs: nounwind sspstrong uwtable
define internal i32 @io_buffer_validate(ptr noundef %0) #0 {
  %2 = alloca i32, align 4
  %3 = alloca ptr, align 8
  store ptr %0, ptr %3, align 8, !tbaa !11
  %4 = load ptr, ptr %3, align 8, !tbaa !11
  %5 = getelementptr inbounds nuw %struct.rb_io_buffer, ptr %4, i32 0, i32 3
  %6 = load i64, ptr %5, align 8, !tbaa !13
  %7 = icmp ne i64 %6, 4
  br i1 %7, label %8, label %19

8:                                                ; preds = %1
  %9 = load ptr, ptr %3, align 8, !tbaa !11
  %10 = getelementptr inbounds nuw %struct.rb_io_buffer, ptr %9, i32 0, i32 3
  %11 = load i64, ptr %10, align 8, !tbaa !13
  %12 = load ptr, ptr %3, align 8, !tbaa !11
  %13 = getelementptr inbounds nuw %struct.rb_io_buffer, ptr %12, i32 0, i32 0
  %14 = load ptr, ptr %13, align 8, !tbaa !17
  %15 = load ptr, ptr %3, align 8, !tbaa !11
  %16 = getelementptr inbounds nuw %struct.rb_io_buffer, ptr %15, i32 0, i32 1
  %17 = load i64, ptr %16, align 8, !tbaa !19
  %18 = call i32 @io_buffer_validate_slice(i64 noundef %11, ptr noundef %14, i64 noundef %17)
  store i32 %18, ptr %2, align 4
  br label %20

19:                                               ; preds = %1
  store i32 1, ptr %2, align 4
  br label %20

20:                                               ; preds = %19, %8
  %21 = load i32, ptr %2, align 4
  ret i32 %21
}

; Function Attrs: nounwind sspstrong uwtable
define internal void @io_buffer_get_bytes_for_reading(ptr noundef %0, ptr noundef %1, ptr noundef %2) #0 {
  %4 = alloca ptr, align 8
  %5 = alloca ptr, align 8
  %6 = alloca ptr, align 8
  store ptr %0, ptr %4, align 8, !tbaa !11
  store ptr %1, ptr %5, align 8, !tbaa !7
  store ptr %2, ptr %6, align 8, !tbaa !33
  %7 = load ptr, ptr %4, align 8, !tbaa !11
  %8 = call i32 @io_buffer_validate(ptr noundef %7)
  %9 = icmp ne i32 %8, 0
  br i1 %9, label %12, label %10

10:                                               ; preds = %3
  %11 = load i64, ptr @rb_eIOBufferInvalidatedError, align 8, !tbaa !20
  call void (i64, ptr, ...) @rb_raise(i64 noundef %11, ptr noundef @.str.119) #26
  unreachable

12:                                               ; preds = %3
  %13 = load ptr, ptr %4, align 8, !tbaa !11
  %14 = getelementptr inbounds nuw %struct.rb_io_buffer, ptr %13, i32 0, i32 0
  %15 = load ptr, ptr %14, align 8, !tbaa !17
  %16 = icmp ne ptr %15, null
  br i1 %16, label %17, label %26

17:                                               ; preds = %12
  %18 = load ptr, ptr %4, align 8, !tbaa !11
  %19 = getelementptr inbounds nuw %struct.rb_io_buffer, ptr %18, i32 0, i32 0
  %20 = load ptr, ptr %19, align 8, !tbaa !17
  %21 = load ptr, ptr %5, align 8, !tbaa !7
  store ptr %20, ptr %21, align 8, !tbaa !7
  %22 = load ptr, ptr %4, align 8, !tbaa !11
  %23 = getelementptr inbounds nuw %struct.rb_io_buffer, ptr %22, i32 0, i32 1
  %24 = load i64, ptr %23, align 8, !tbaa !19
  %25 = load ptr, ptr %6, align 8, !tbaa !33
  store i64 %24, ptr %25, align 8, !tbaa !20
  br label %29

26:                                               ; preds = %12
  %27 = load ptr, ptr %5, align 8, !tbaa !7
  store ptr null, ptr %27, align 8, !tbaa !7
  %28 = load ptr, ptr %6, align 8, !tbaa !33
  store i64 0, ptr %28, align 8, !tbaa !20
  br label %29

29:                                               ; preds = %26, %17
  ret void
}

; Function Attrs: nounwind sspstrong uwtable
define dso_local void @rb_io_buffer_get_bytes_for_reading(i64 noundef %0, ptr noundef %1, ptr noundef %2) #0 {
  %4 = alloca i64, align 8
  %5 = alloca ptr, align 8
  %6 = alloca ptr, align 8
  %7 = alloca ptr, align 8
  store i64 %0, ptr %4, align 8, !tbaa !20
  store ptr %1, ptr %5, align 8, !tbaa !7
  store ptr %2, ptr %6, align 8, !tbaa !33
  call void @llvm.lifetime.start.p0(i64 8, ptr %7) #22
  store ptr null, ptr %7, align 8, !tbaa !11
  %8 = load i64, ptr %4, align 8, !tbaa !20
  %9 = call ptr @rb_check_typeddata(i64 noundef %8, ptr noundef @rb_io_buffer_type)
  store ptr %9, ptr %7, align 8, !tbaa !11
  %10 = load ptr, ptr %7, align 8, !tbaa !11
  %11 = load ptr, ptr %5, align 8, !tbaa !7
  %12 = load ptr, ptr %6, align 8, !tbaa !33
  call void @io_buffer_get_bytes_for_reading(ptr noundef %10, ptr noundef %11, ptr noundef %12)
  call void @llvm.lifetime.end.p0(i64 8, ptr %7) #22
  ret void
}

; Function Attrs: nounwind sspstrong uwtable
define internal i64 @io_buffer_values(i32 noundef %0, ptr noundef %1, i64 noundef %2) #0 {
  %4 = alloca i32, align 4
  %5 = alloca ptr, align 8
  %6 = alloca i64, align 8
  %7 = alloca ptr, align 8
  %8 = alloca i64, align 8
  %9 = alloca i64, align 8
  %10 = alloca i64, align 8
  %11 = alloca i64, align 8
  %12 = alloca i64, align 8
  %13 = alloca i64, align 8
  %14 = alloca i64, align 8
  store i32 %0, ptr %4, align 4, !tbaa !32
  store ptr %1, ptr %5, align 8, !tbaa !33
  store i64 %2, ptr %6, align 8, !tbaa !20
  call void @llvm.lifetime.start.p0(i64 8, ptr %7) #22
  call void @llvm.lifetime.start.p0(i64 8, ptr %8) #22
  %15 = load i64, ptr %6, align 8, !tbaa !20
  call void @rb_io_buffer_get_bytes_for_reading(i64 noundef %15, ptr noundef %7, ptr noundef %8)
  call void @llvm.lifetime.start.p0(i64 8, ptr %9) #22
  %16 = load i32, ptr %4, align 4, !tbaa !32
  %17 = icmp sge i32 %16, 1
  br i1 %17, label %18, label %23

18:                                               ; preds = %3
  %19 = load ptr, ptr %5, align 8, !tbaa !33
  %20 = getelementptr i64, ptr %19, i64 0
  %21 = load i64, ptr %20, align 8, !tbaa !20
  %22 = call i64 @rb_sym2id(i64 noundef %21)
  store i64 %22, ptr %9, align 8, !tbaa !20
  br label %25

23:                                               ; preds = %3
  %24 = load i64, ptr @RB_IO_BUFFER_DATA_TYPE_U8, align 8, !tbaa !20
  store i64 %24, ptr %9, align 8, !tbaa !20
  br label %25

25:                                               ; preds = %23, %18
  call void @llvm.lifetime.start.p0(i64 8, ptr %10) #22
  call void @llvm.lifetime.start.p0(i64 8, ptr %11) #22
  %26 = load i64, ptr %9, align 8, !tbaa !20
  %27 = load i64, ptr %8, align 8, !tbaa !20
  %28 = load i32, ptr %4, align 4, !tbaa !32
  %29 = sub i32 %28, 1
  %30 = load ptr, ptr %5, align 8, !tbaa !33
  %31 = getelementptr i64, ptr %30, i64 1
  call void @io_buffer_extract_offset_count(i64 noundef %26, i64 noundef %27, i32 noundef %29, ptr noundef %31, ptr noundef %10, ptr noundef %11)
  call void @llvm.lifetime.start.p0(i64 8, ptr %12) #22
  %32 = load i64, ptr %11, align 8, !tbaa !20
  %33 = call i64 @rb_ary_new_capa(i64 noundef %32)
  store i64 %33, ptr %12, align 8, !tbaa !20
  call void @llvm.lifetime.start.p0(i64 8, ptr %13) #22
  store i64 0, ptr %13, align 8, !tbaa !20
  br label %34

34:                                               ; preds = %47, %25
  %35 = load i64, ptr %13, align 8, !tbaa !20
  %36 = load i64, ptr %11, align 8, !tbaa !20
  %37 = icmp ult i64 %35, %36
  br i1 %37, label %39, label %38

38:                                               ; preds = %34
  call void @llvm.lifetime.end.p0(i64 8, ptr %13) #22
  br label %50

39:                                               ; preds = %34
  call void @llvm.lifetime.start.p0(i64 8, ptr %14) #22
  %40 = load ptr, ptr %7, align 8, !tbaa !7
  %41 = load i64, ptr %8, align 8, !tbaa !20
  %42 = load i64, ptr %9, align 8, !tbaa !20
  %43 = call i64 @rb_io_buffer_get_value(ptr noundef %40, i64 noundef %41, i64 noundef %42, ptr noundef %10)
  store i64 %43, ptr %14, align 8, !tbaa !20
  %44 = load i64, ptr %12, align 8, !tbaa !20
  %45 = load i64, ptr %14, align 8, !tbaa !20
  %46 = call i64 @rb_ary_push(i64 noundef %44, i64 noundef %45)
  call void @llvm.lifetime.end.p0(i64 8, ptr %14) #22
  br label %47

47:                                               ; preds = %39
  %48 = load i64, ptr %13, align 8, !tbaa !20
  %49 = add i64 %48, 1
  store i64 %49, ptr %13, align 8, !tbaa !20
  br label %34, !llvm.loop !90

50:                                               ; preds = %38
  %51 = load i64, ptr %12, align 8, !tbaa !20
  call void @llvm.lifetime.end.p0(i64 8, ptr %12) #22
  call void @llvm.lifetime.end.p0(i64 8, ptr %11) #22
  call void @llvm.lifetime.end.p0(i64 8, ptr %10) #22
  call void @llvm.lifetime.end.p0(i64 8, ptr %9) #22
  call void @llvm.lifetime.end.p0(i64 8, ptr %8) #22
  call void @llvm.lifetime.end.p0(i64 8, ptr %7) #22
  ret i64 %51
}