; Function Attrs: nounwind sspstrong uwtable
define internal i64 @io_buffer_values(i32 noundef %0, ptr noundef readonly captures(none) %1, i64 noundef %2) #0 {
  %4 = alloca i64, align 8
  %5 = alloca i64, align 8
  %6 = tail call ptr @rb_check_typeddata(i64 noundef %2, ptr noundef nonnull @rb_io_buffer_type) #25
  %7 = getelementptr inbounds nuw i8, ptr %6, i64 24
  %8 = load i64, ptr %7, align 8, !tbaa !7
  %.not.i.i.i = icmp eq i64 %8, 4
  br i1 %.not.i.i.i, label %io_buffer_validate.exit.thread.i.i, label %io_buffer_validate.exit.i.i

io_buffer_validate.exit.i.i:                      ; preds = %3
  %9 = load ptr, ptr %6, align 8, !tbaa !14
  %10 = getelementptr inbounds nuw i8, ptr %6, i64 8
  %11 = load i64, ptr %10, align 8, !tbaa !16
  %12 = tail call fastcc i32 @io_buffer_validate_slice(i64 noundef %8, ptr noundef %9, i64 noundef %11)
  %.not.i.i = icmp eq i32 %12, 0
  br i1 %.not.i.i, label %13, label %io_buffer_validate.exit.thread.i.i

13:                                               ; preds = %io_buffer_validate.exit.i.i
  %14 = load i64, ptr @rb_eIOBufferInvalidatedError, align 8, !tbaa !22
  tail call void (i64, ptr, ...) @rb_raise(i64 noundef %14, ptr noundef nonnull @.str.119) #26
  unreachable

io_buffer_validate.exit.thread.i.i:               ; preds = %io_buffer_validate.exit.i.i, %3
  %15 = load ptr, ptr %6, align 8, !tbaa !14
  %.not8.i.i = icmp eq ptr %15, null
  br i1 %.not8.i.i, label %rb_io_buffer_get_bytes_for_reading.exit, label %16

16:                                               ; preds = %io_buffer_validate.exit.thread.i.i
  %17 = getelementptr inbounds nuw i8, ptr %6, i64 8
  %18 = load i64, ptr %17, align 8, !tbaa !16
  br label %rb_io_buffer_get_bytes_for_reading.exit

rb_io_buffer_get_bytes_for_reading.exit:          ; preds = %io_buffer_validate.exit.thread.i.i, %16
  %storemerge.i.i = phi i64 [ %18, %16 ], [ 0, %io_buffer_validate.exit.thread.i.i ]
  %19 = icmp sgt i32 %0, 0
  br i1 %19, label %20, label %23

20:                                               ; preds = %rb_io_buffer_get_bytes_for_reading.exit
  %21 = load i64, ptr %1, align 8, !tbaa !22
  %22 = tail call i64 @rb_sym2id(i64 noundef %21) #25
  br label %25

23:                                               ; preds = %rb_io_buffer_get_bytes_for_reading.exit
  %24 = load i64, ptr @RB_IO_BUFFER_DATA_TYPE_U8, align 8, !tbaa !22
  br label %25

25:                                               ; preds = %23, %20
  %.0 = phi i64 [ %22, %20 ], [ %24, %23 ]
  call void @llvm.lifetime.start.p0(i64 8, ptr nonnull %4) #25
  call void @llvm.lifetime.start.p0(i64 8, ptr nonnull %5) #25
  %26 = add i32 %0, -1
  %27 = getelementptr i8, ptr %1, i64 8
  call fastcc void @io_buffer_extract_offset_count(i64 noundef %.0, i64 noundef %storemerge.i.i, i32 noundef %26, ptr noundef %27, ptr noundef %4, ptr noundef %5)
  %28 = load i64, ptr %5, align 8, !tbaa !22
  %29 = tail call i64 @rb_ary_new_capa(i64 noundef %28) #25
  %.not = icmp eq i64 %28, 0
  br i1 %.not, label %._crit_edge, label %.lr.ph

._crit_edge:                                      ; preds = %.lr.ph, %25
  call void @llvm.lifetime.end.p0(i64 8, ptr nonnull %5) #25
  call void @llvm.lifetime.end.p0(i64 8, ptr nonnull %4) #25
  ret i64 %29

.lr.ph:                                           ; preds = %25, %.lr.ph
  %.01113 = phi i64 [ %32, %.lr.ph ], [ 0, %25 ]
  %30 = call fastcc i64 @rb_io_buffer_get_value(ptr noundef %15, i64 noundef %storemerge.i.i, i64 noundef %.0, ptr noundef %4)
  %31 = tail call i64 @rb_ary_push(i64 noundef %29, i64 noundef %30) #25
  %32 = add nuw i64 %.01113, 1
  %exitcond.not = icmp eq i64 %32, %28
  br i1 %exitcond.not, label %._crit_edge, label %.lr.ph, !llvm.loop !80
}